target datalayout = "e-m:e-p270:32:32-p271:32:32-p272:64:64-i64:64-i128:128-f80:128-n8:16:32:64-S128"
target triple = "x86_64-pc-linux-gnu"

%"struct.cv::SparseMat::Hdr" = type { i32, i32, i32, i64, i64, i64, %"class.std::vector", %"class.std::vector.0", [32 x i32] }
%"class.std::vector" = type { %"struct.std::_Vector_base" }
%"struct.std::_Vector_base" = type { %"struct.std::_Vector_base<unsigned char, std::allocator<unsigned char>>::_Vector_impl" }
%"struct.std::_Vector_base<unsigned char, std::allocator<unsigned char>>::_Vector_impl" = type { %"struct.std::_Vector_base<unsigned char, std::allocator<unsigned char>>::_Vector_impl_data" }
%"struct.std::_Vector_base<unsigned char, std::allocator<unsigned char>>::_Vector_impl_data" = type { ptr, ptr, ptr }
%"class.std::vector.0" = type { %"struct.std::_Vector_base.1" }
%"struct.std::_Vector_base.1" = type { %"struct.std::_Vector_base<unsigned long, std::allocator<unsigned long>>::_Vector_impl" }
%"struct.std::_Vector_base<unsigned long, std::allocator<unsigned long>>::_Vector_impl" = type { %"struct.std::_Vector_base<unsigned long, std::allocator<unsigned long>>::_Vector_impl_data" }
%"struct.std::_Vector_base<unsigned long, std::allocator<unsigned long>>::_Vector_impl_data" = type { ptr, ptr, ptr }
%"class.cv::SparseMat" = type { i32, ptr }
%"struct.cv::SparseMat::Node" = type { i64, i64, [32 x i32] }

; Function Attrs: mustprogress nounwind uwtable
define linkonce_odr hidden noundef nonnull align 1 dereferenceable(1) ptr @_ZNSt6vectorIhSaIhEEixEm(ptr noundef nonnull align 8 dereferenceable(24) %0, i64 noundef %1) #1 comdat align 2 {
  %3 = alloca ptr, align 8
  %4 = alloca i64, align 8
  store ptr %0, ptr %3, align 8, !tbaa !31
  store i64 %1, ptr %4, align 8, !tbaa !35
  %5 = load ptr, ptr %3, align 8
  %6 = getelementptr inbounds nuw %"struct.std::_Vector_base", ptr %5, i32 0, i32 0
  %7 = getelementptr inbounds nuw %"struct.std::_Vector_base<unsigned char, std::allocator<unsigned char>>::_Vector_impl_data", ptr %6, i32 0, i32 0
  %8 = load ptr, ptr %7, align 8, !tbaa !40
  %9 = load i64, ptr %4, align 8, !tbaa !35
  %10 = getelementptr inbounds nuw i8, ptr %8, i64 %9
  ret ptr %10
}

; Function Attrs: mustprogress nounwind uwtable
define linkonce_odr hidden noundef nonnull align 8 dereferenceable(8) ptr @_ZNSt6vectorImSaImEEixEm(ptr noundef nonnull align 8 dereferenceable(24) %0, i64 noundef %1) #1 comdat align 2 {
  %3 = alloca ptr, align 8
  %4 = alloca i64, align 8
  store ptr %0, ptr %3, align 8, !tbaa !33
  store i64 %1, ptr %4, align 8, !tbaa !35
  %5 = load ptr, ptr %3, align 8
  %6 = getelementptr inbounds nuw %"struct.std::_Vector_base.1", ptr %5, i32 0, i32 0
  %7 = getelementptr inbounds nuw %"struct.std::_Vector_base<unsigned long, std::allocator<unsigned long>>::_Vector_impl_data", ptr %6, i32 0, i32 0
  %8 = load ptr, ptr %7, align 8, !tbaa !38
  %9 = load i64, ptr %4, align 8, !tbaa !35
  %10 = getelementptr inbounds nuw i64, ptr %8, i64 %9
  ret ptr %10
}

; Function Attrs: inlinehint mustprogress nounwind uwtable
define linkonce_odr hidden noundef ptr @_ZN2cv9SparseMat4nodeEm(ptr noundef nonnull align 8 dereferenceable(16) %0, i64 noundef %1) #2 comdat align 2 {
  %3 = alloca ptr, align 8
  %4 = alloca i64, align 8
  store ptr %0, ptr %3, align 8, !tbaa !42
  store i64 %1, ptr %4, align 8, !tbaa !35
  %5 = load ptr, ptr %3, align 8
  %6 = getelementptr inbounds nuw %"class.cv::SparseMat", ptr %5, i32 0, i32 1
  %7 = load ptr, ptr %6, align 8, !tbaa !46
  %8 = getelementptr inbounds nuw %"struct.cv::SparseMat::Hdr", ptr %7, i32 0, i32 6
  %9 = load i64, ptr %4, align 8, !tbaa !35
  %10 = call noundef nonnull align 1 dereferenceable(1) ptr @_ZNSt6vectorIhSaIhEEixEm(ptr noundef nonnull align 8 dereferenceable(24) %8, i64 noundef %9) #18
  ret ptr %10
}

; Function Attrs: mustprogress uwtable
define void @_ZN2cv9SparseMat10removeNodeEmmm(ptr noundef nonnull align 8 dereferenceable(16) %0, i64 noundef %1, i64 noundef %2, i64 noundef %3) #0 align 2 {
  %5 = alloca ptr, align 8
  %6 = alloca i64, align 8
  %7 = alloca i64, align 8
  %8 = alloca i64, align 8
  %9 = alloca ptr, align 8
  %10 = alloca ptr, align 8
  store ptr %0, ptr %5, align 8, !tbaa !42
  store i64 %1, ptr %6, align 8, !tbaa !35
  store i64 %2, ptr %7, align 8, !tbaa !35
  store i64 %3, ptr %8, align 8, !tbaa !35
  %11 = load ptr, ptr %5, align 8
  call void @llvm.lifetime.start.p0(i64 8, ptr %9) #18
  %12 = load i64, ptr %7, align 8, !tbaa !35
  %13 = call noundef ptr @_ZN2cv9SparseMat4nodeEm(ptr noundef nonnull align 8 dereferenceable(16) %11, i64 noundef %12)
  store ptr %13, ptr %9, align 8, !tbaa !55
  %14 = load i64, ptr %8, align 8, !tbaa !35
  %15 = icmp ne i64 %14, 0
  br i1 %15, label %16, label %24

16:                                               ; preds = %4
  call void @llvm.lifetime.start.p0(i64 8, ptr %10) #18
  %17 = load i64, ptr %8, align 8, !tbaa !35
  %18 = call noundef ptr @_ZN2cv9SparseMat4nodeEm(ptr noundef nonnull align 8 dereferenceable(16) %11, i64 noundef %17)
  store ptr %18, ptr %10, align 8, !tbaa !55
  %19 = load ptr, ptr %9, align 8, !tbaa !55
  %20 = getelementptr inbounds nuw %"struct.cv::SparseMat::Node", ptr %19, i32 0, i32 1
  %21 = load i64, ptr %20, align 8, !tbaa !83
  %22 = load ptr, ptr %10, align 8, !tbaa !55
  %23 = getelementptr inbounds nuw %"struct.cv::SparseMat::Node", ptr %22, i32 0, i32 1
  store i64 %21, ptr %23, align 8, !tbaa !83
  call void @llvm.lifetime.end.p0(i64 8, ptr %10) #18
  br label %33

24:                                               ; preds = %4
  %25 = load ptr, ptr %9, align 8, !tbaa !55
  %26 = getelementptr inbounds nuw %"struct.cv::SparseMat::Node", ptr %25, i32 0, i32 1
  %27 = load i64, ptr %26, align 8, !tbaa !83
  %28 = getelementptr inbounds nuw %"class.cv::SparseMat", ptr %11, i32 0, i32 1
  %29 = load ptr, ptr %28, align 8, !tbaa !46
  %30 = getelementptr inbounds nuw %"struct.cv::SparseMat::Hdr", ptr %29, i32 0, i32 7
  %31 = load i64, ptr %6, align 8, !tbaa !35
  %32 = call noundef nonnull align 8 dereferenceable(8) ptr @_ZNSt6vectorImSaImEEixEm(ptr noundef nonnull align 8 dereferenceable(24) %30, i64 noundef %31) #18
  store i64 %27, ptr %32, align 8, !tbaa !35
  br label %33

33:                                               ; preds = %24, %16
  %34 = getelementptr inbounds nuw %"class.cv::SparseMat", ptr %11, i32 0, i32 1
  %35 = load ptr, ptr %34, align 8, !tbaa !46
  %36 = getelementptr inbounds nuw %"struct.cv::SparseMat::Hdr", ptr %35, i32 0, i32 5
  %37 = load i64, ptr %36, align 8, !tbaa !36
  %38 = load ptr, ptr %9, align 8, !tbaa !55
  %39 = getelementptr inbounds nuw %"struct.cv::SparseMat::Node", ptr %38, i32 0, i32 1
  store i64 %37, ptr %39, align 8, !tbaa !83
  %40 = load i64, ptr %7, align 8, !tbaa !35
  %41 = getelementptr inbounds nuw %"class.cv::SparseMat", ptr %11, i32 0, i32 1
  %42 = load ptr, ptr %41, align 8, !tbaa !46
  %43 = getelementptr inbounds nuw %"struct.cv::SparseMat::Hdr", ptr %42, i32 0, i32 5
  store i64 %40, ptr %43, align 8, !tbaa !36
  %44 = getelementptr inbounds nuw %"class.cv::SparseMat", ptr %11, i32 0, i32 1
  %45 = load ptr, ptr %44, align 8, !tbaa !46
  %46 = getelementptr inbounds nuw %"struct.cv::SparseMat::Hdr", ptr %45, i32 0, i32 4
  %47 = load i64, ptr %46, align 8, !tbaa !37
  %48 = add i64 %47, -1
  store i64 %48, ptr %46, align 8, !tbaa !37
  call void @llvm.lifetime.end.p0(i64 8, ptr %9) #18
  ret void
}