; Function Attrs: mustprogress nofree norecurse nosync nounwind willreturn memory(readwrite, inaccessiblemem: none) uwtable
define void @_ZN2cv9SparseMat10removeNodeEmmm(ptr noundef nonnull readonly align 8 captures(none) dereferenceable(16) %0, i64 noundef %1, i64 noundef %2, i64 noundef %3) local_unnamed_addr #14 align 2 {
  %5 = getelementptr inbounds nuw i8, ptr %0, i64 8
  %6 = load ptr, ptr %5, align 8, !tbaa !36
  %7 = getelementptr inbounds nuw i8, ptr %6, i64 40
  %8 = load ptr, ptr %7, align 8, !tbaa !29
  %9 = getelementptr inbounds nuw i8, ptr %8, i64 %2
  %.not = icmp eq i64 %3, 0
  br i1 %.not, label %15, label %10

10:                                               ; preds = %4
  %11 = getelementptr inbounds nuw i8, ptr %8, i64 %3
  %12 = getelementptr inbounds nuw i8, ptr %9, i64 8
  %13 = load i64, ptr %12, align 8, !tbaa !75
  %14 = getelementptr inbounds nuw i8, ptr %11, i64 8
  store i64 %13, ptr %14, align 8, !tbaa !75
  br label %21

15:                                               ; preds = %4
  %16 = getelementptr inbounds nuw i8, ptr %9, i64 8
  %17 = load i64, ptr %16, align 8, !tbaa !75
  %18 = getelementptr inbounds nuw i8, ptr %6, i64 64
  %19 = load ptr, ptr %18, align 8, !tbaa !26
  %20 = getelementptr inbounds nuw i64, ptr %19, i64 %1
  store i64 %17, ptr %20, align 8, !tbaa !64
  br label %21

21:                                               ; preds = %15, %10
  %22 = getelementptr inbounds nuw i8, ptr %6, i64 32
  %23 = load i64, ptr %22, align 8, !tbaa !74
  %24 = getelementptr inbounds nuw i8, ptr %9, i64 8
  store i64 %23, ptr %24, align 8, !tbaa !75
  store i64 %2, ptr %22, align 8, !tbaa !74
  %25 = getelementptr inbounds nuw i8, ptr %6, i64 24
  %26 = load i64, ptr %25, align 8, !tbaa !43
  %27 = add i64 %26, -1
  store i64 %27, ptr %25, align 8, !tbaa !43
  ret void
}